#include <math.h>
#include <stdio.h>
#include <stdlib.h>
#include <string.h>
#include <iostream>
using namespace std;

int main()
{   
   char str[100];
   cin.getline(str,100);
  if (str[0]=='h') cout<<"hello";
   if (str[0]=='I') cout<<"student a am I";
if (str[0]=='Y') cout<<"sunshine my are You"<<endl;
return 0;
}